ccopy_reg
_reconstructor
p0
(capiclient.oauth
OAuthCredentials
p1
c__builtin__
object
p2
Ntp3
Rp4
(dp5
S'_invalid'
p6
I00
sS'token'
p7
g0
(coauth2
Token
p8
g2
Ntp9
Rp10
(dp11
S'secret'
p12
S'7ON6ruIwJeJoHAKllyTL5ubk'
p13
sS'key'
p14
S'1/S_YnheAqNKB1QE8lX21V2v36eG5HNiHHUTAnCtNopp4'
p15
sbsS'consumer'
p16
g0
(coauth2
Consumer
p17
g2
Ntp18
Rp19
(dp20
g12
S'lzhGCgXu33_hj33YN4LYvL98'
p21
sg14
S'svetsen.homeip.net'
p22
sbsS'user_agent'
p23
S'google-api-client-python-latitude/1.0'
p24
sb.